(lp0
(lp1
Vfeared violence
p2
aVfeared
p3
aa(lp4
Vadvocated violence
p5
aVadvocated
p6
aa(lp7
Vlarge
p8
aVis too large
p9
aa(lp10
Vsmall
p11
aVis too small
p12
aa(lp13
Vrecieved
p14
aVall the help had recieved
p15
aa(lp16
Vgiven
p17
aVall the help had given
p18
aa(lp19
Vwasn't successful
p20
aVsuccessful
p21
aa(lp22
Vwasn't available
p23
aVavailable
p24
aa(lp25
Vrepeat
p26
aVwas reluctant to repeat
p27
aa(lp28
Vanswer
p29
aVwas reluctant to answer
p30
aa(lp31
Vwas going so fast
p32
aVgoing
p33
aa(lp34
Vslow
p35
aVwas going so slow
p36
aa(lp37
Vwas the winner of the competition
p38
aa(lp39
Vwas the winner of the competition
p40
aa(lp41
Vweak
p42
aVwas so weak
p43
aa(lp44
Vheavy
p45
aVwas so heavy
p46
aa(lp47
Vsteel
p48
aVwas made of steel
p49
aa(lp50
Vwas made of styrofoam
p51
aVmade
p52
aa(lp53
Vfront of because is so short
p54
aVfront
p55
aa(lp56
Vfront of because is so tall
p57
aVfront
p58
aa(lp59
Vreached
p60
aVreached the top of the stairs
p61
aa(lp62
Vreached
p63
aVreached the bottom of the stairs
p64
aa(lp65
Vsuch
p66
aVhad such a good start
p67
aa(lp68
Vsuch
p69
aVhad such a bad start
p70
aa(lp71
Vwasn't anchored
p72
aVanchored
p73
aa(lp74
Vwasn't level
p75
aa(lp76
VTina 's and did look much better with another one below
p77
aVlook
p78
aa(lp79
VTina 's and did look much better with another one above
p80
aVlook
p81
aa(lp82
Vstudied
p83
aVhad studied so hard
p84
aa(lp85
Vstudied
p86
aVhad studied so hard
p87
aa(lp88
Vwere coming from so far away
p89
aVcoming
p90
aa(lp91
Vwere coming from so far away
p92
aVcoming
p93
aa(lp94
Vthe toaster had bought from didn't work
p95
aVwork
p96
aa(lp97
Vsold
p98
aVthe toaster had sold didn't work
p99
aa(lp100
Vupset
p101
aVwas so upset
p102
aa(lp103
Vupset
p104
aVwas so upset
p105
aa(lp106
Vhad to be moved first
p107
aVmoved
p108
aa(lp109
Vhad to be moved first
p110
aVmoved
p111
aa(lp112
Vsuccessful
p113
aVis very successful
p114
aa(lp115
Vsuccessful
p116
aVis very successful
p117
aa(lp118
Vpunished
p119
aa(lp120
Vrescued
p121
aa(lp122
Vwas empty
p123
aVempty
p124
aa(lp125
Vfull
p126
aVwas full
p127
aa(lp128
Vnosy
p129
aVis nosy
p130
aa(lp131
Vis indiscreet
p132
aVindiscreet
p133
aa(lp134
Vcouldn't convince
p135
aVconvince
p136
aa(lp137
Vcouldn't understand
p138
aVunderstand
p139
aa(lp140
Va car accident , so told about
p141
aVtold
p142
aa(lp143
Va car accident , because told about
p144
aVtold
p145
aa(lp146
Vtennis , even though is 30 years younger
p147
aVtennis
p148
aa(lp149
Vtennis
p150
aVtennis , even though is 30 years older
p151
aa(lp152
Vis to the right of the bookcase
p153
aa(lp154
Vis to the right of a house
p155
aa(lp156
Vsee
p157
aVcan see the garden through
p158
aa(lp159
Vcan see the garden behind
p160
aVsee
p161
aa(lp162
Vcleaned
p163
aVhas to be cleaned
p164
aa(lp165
Vremoved
p166
aVhas to be removed
p167
aa(lp168
Vworked
p169
aVmuch
p170
aV, was short , so worked out
p171
aV4:30 , so there wasn't much time
p172
aa(lp173
V, was delayed , so worked out
p174
aVmuch
p175
aVworked
p176
aV4:30 , so there wasn't much time
p177
aa(lp178
Vsee
p179
aVcan't see around
p180
aa(lp181
Vcan't see
p182
aVsee
p183
aa(lp184
Vhear
p185
aVthe station and couldn't hear
p186
aa(lp187
Vthe station and couldn't hear over
p188
aVhear
p189
aa(lp190
Vcontinued
p191
aVcontinued until 10
p192
aa(lp193
Vcontinued
p194
aVcontinued until 10
p195
aa(lp196
Vput
p197
aVthen put in the trash
p198
aa(lp199
Vput
p200
aVthen put in the drawer
p201
aa(lp202
Vhad forgotten
p203
aVforgotten
p204
aa(lp205
Vhad forgotten
p206
aVforgotten
p207
aa(lp208
Vthat would be handy
p209
aVhandy
p210
aa(lp211
Vthat would be lighter
p212
aVlighter
p213
aa(lp214
Vtall
p215
aVwas too tall
p216
aa(lp217
Vhigh
p218
aVwas too high
p219
aa(lp220
a(lp221
a(lp222
Vgenerous
p223
aVis very generous
p224
aa(lp225
Vis very grateful
p226
aVgrateful
p227
aa(lp228
Vis very hurt
p229
aVacts
p230
aVnow Charlie acts as though never happened
p231
aVhurt
p232
aa(lp233
Vungrateful
p234
aVacts
p235
aVnow Charlie acts as though never happened
p236
aVis very ungrateful
p237
aa(lp238
Vwas way ahead
p239
aVAdam hadn't had a sudden run of good luck , would have won
p240
aVgood
p241
aa(lp242
Vwas way ahead
p243
aVgood
p244
aVAdam hadn't had a sudden run of good luck , would have lost
p245
aa(lp246
Vgone
p247
aVBob had left home for work on time , would be gone by this time
p248
aa(lp249
Vwork
p250
aVBob had left home for work on time , would be here by this time
p251
aa(lp252
Vgotten
p253
aVwould have gotten a lot of money
p254
aa(lp255
Vmoney
p256
aVwould have lost a lot of money
p257
aa(lp258
Vthe dog was sitting in the middle of the lawn
p259
aVa while , got up and moved to a spot under the tree , because was hot
p260
aVmoved
p261
aVsitting
p262
aa(lp263
Vcooler
p264
aVthe dog was sitting in the middle of the lawn
p265
aVa while , got up and moved to a spot under the tree , because was cooler
p266
aVsitting
p267
aa(lp268
Vthe mouse , but was too impatient
p269
aVimpatient
p270
aa(lp271
Vthe mouse , but was too cautious
p272
aVcautious
p273
aa(lp274
Vis a very charming woman
p275
aVcharming
p276
aa(lp277
Vis a very charming baby
p278
aVcharming
p279
aa(lp280
Vbehaving
p281
aVchatting at the party , leaving to wonder why was behaving so strangely
p282
aa(lp283
Vbarking at the party , leaving to wonder why was behaving so strangely
p284
aVbehaving
p285
aa(lp286
Vhuge
p287
aVdon't know why was , but looked very unhappy
p288
aVa huge red beard
p289
aa(lp290
Vhuge
p291
aVa huge red beard
p292
aVdon't know who was , but looked very unhappy
p293
aa(lp294
Vwas hungry
p295
aVhungry
p296
aa(lp297
Vtasty
p298
aVwas tasty
p299
aa(lp300
Vcouldn't get in
p301
aa(lp302
Vcouldn't get out
p303
aa(lp304
Vran up a tree
p305
aVran
p306
aVwaited at the bottom
p307
aa(lp308
Vran up a tree
p309
aVran
p310
aVwaited at the top
p311
aa(lp312
V, have to get removed
p313
aVhouse
p314
aVremoved
p315
aa(lp316
Vhouse
p317
aVrepaired
p318
aV, have to get repaired
p319
aa(lp320
Vtaken
p321
aVstabbed
p322
aVwas immediately taken to the police station
p323
aVthe bank and stabbed one of the tellers
p324
aa(lp325
Vtaken
p326
aVstabbed
p327
aVwas immediately taken to the hospital
p328
aVthe bank and stabbed one of the tellers
p329
aa(lp330
Vwas very annoyed
p331
aVannoyed
p332
aVwhistling
p333
aa(lp334
Vwas very annoying
p335
aVannoying
p336
aVwhistling
p337
aa(lp338
Vsaw
p339
aVthe park when saw a man juggling watermelons
p340
aVwas very impressed
p341
aa(lp342
Vsaw
p343
aVthe park when saw a man juggling watermelons
p344
aVwas very impressive
p345
aa(lp346
Vwas very ill
p347
aVsaw
p348
aVsaw Carl coming to help
p349
aa(lp350
Vwas very concerned
p351
aVconcerned
p352
aVsaw
p353
aVsaw Carl coming to help
p354
aa(lp355
V, because are fifteen
p356
aa(lp357
V, because are snobs
p358
aa(lp359
Vincluded
p360
aV, which Pete included in his book
p361
aVshould have been more truthful
p362
aa(lp363
Vincluded
p364
aV, which Pete included in his book
p365
aVshould have been more skeptical
p366
aa(lp367
Vnew
p368
aVwill be moving out of on Thursday
p369
aVThursday
p370
aVbought a new one a few miles away
p371
aa(lp372
Vnew
p373
aVwill be moving into on Thursday
p374
aVThursday
p375
aVbought a new one a few miles away
p376
aa(lp377
Vput
p378
aVcan't put down
p379
aVare gripped because Paul writes so well
p380
aa(lp381
Vput
p382
aVcan't put down
p383
aVare popular because Paul writes so well
p384
aa(lp385
Vfavorite
p386
aVplayed one of favorite pieces
p387
aVhas had since was a child
p388
aa(lp389
Vfavorite
p390
aVloved
p391
aVplayed one of favorite pieces
p392
aVhas loved since was a child
p393
aa(lp394
Vwas broken , so had to stand instead
p395
aVbroken
p396
aa(lp397
Vbroken
p398
aVwas broken , so had to sing instead
p399
aa(lp400
a(lp401
a(lp402
Vreads when gets home from work
p403
aVwork
p404
aa(lp405
Vwrites when gets home from work
p406
aVwork
p407
aa(lp408
Vknocked
p409
aVthe highest tower , but this afternoon the tide knocked down
p410
aa(lp411
Vknocked
p412
aVthe highest tower , but this afternoon the wind knocked down
p413
aa(lp414
Vthere was no answer
p415
aVdisappointed
p416
aVwas disappointed
p417
aa(lp418
Vthere was no answer
p419
aVwas out
p420
aa(lp421
Vinvited
p422
aVinvited to come out
p423
aa(lp424
Vinvited
p425
aVinvited to come in
p426
aa(lp427
Veager
p428
aVwas eager to speak fluently
p429
aa(lp430
Vknown
p431
aVwas known to speak fluently
p432
aa(lp433
Vuse
p434
aVcouldn't use
p435
aa(lp436
Vreach
p437
aVcouldn't reach
p438
aa(lp439
Vstarted
p440
aVluckily , by the time the picnic started , was out
p441
aa(lp442
Vstarted
p443
aVluckily , by the time the picnic started , was gone
p444
aa(lp445
Vwas a safer place to swim
p446
aVswim
p447
aa(lp448
Vswim
p449
aVwas a dangerous place to swim
p450
aa(lp451
Vlooking
p452
aVended up looking more like golfers
p453
aa(lp454
Vlooking
p455
aVended up looking more like dogs
p456
aa(lp457
Vwork
p458
aVbed , so that could work
p459
aa(lp460
Vsleep
p461
aVbed , so that could sleep
p462
aa(lp463
Vcold
p464
aVwere not prepared for the cold in Alaska
p465
aa(lp466
Vwere not enough for the cold in Alaska
p467
aVcold
p468
aa(lp469
Vthat date had been travelling for five years
p470
aVtravelling
p471
aV1765
p472
aa(lp473
Vthat date had been dead for five years
p474
aVdead
p475
aV1765
p476
aa(lp477
Vlived
p478
aVlived two centuries later
p479
aa(lp480
Vlived
p481
aVlived two centuries earlier
p482
aa(lp483
a(lp484
a(lp485
Vkill
p486
aVshall have to kill
p487
aa(lp488
Vguard
p489
aVshall have to guard
p490
aa(lp491
Vgotten
p492
aVhave gotten very bold
p493
aa(lp494
Vgotten
p495
aVhave gotten very nervous
p496
aa(lp497
Vblowing
p498
aVstopped
p499
aVopened when the wind stopped
p500
aVthe wind was blowing sand around
p501
aa(lp502
Vlowered when the wind stopped
p503
aVblowing
p504
aVstopped
p505
aVthe wind was blowing sand around
p506
aa(lp507
Vfigured was too hard to pronounce
p508
aVhard
p509
aa(lp510
Vfigured was easier to pronounce
p511
aVpronounce
p512
aa(lp513
Van hour got up
p514
aVto buy groceries
p515
aVbuy
p516
aa(lp517
Van hour got back
p518
aVto buy groceries
p519
aVbuy
p520
aa(lp521
Vchanged
p522
aVthe show turned out to be boring , so changed his mind and turned on
p523
aa(lp524
Vthe show turned out to be boring , so changed his mind and turned off
p525
aVchanged
p526
aa(lp527
Vis a remarkable man
p528
aVremarkable
p529
aa(lp530
Vwas a remarkable man
p531
aVremarkable
p532
aa(lp533
Van infant
p534
aVold
p535
aVFred first saw father , was twelve years old
p536
aa(lp537
Van infant
p538
aVold
p539
aVFred first saw father , was twelve months old
p540
aa(lp541
VYakutsk 's army was much better equipped and ten times larger , were defeated within weeks
p542
aVYakutsk
p543
aa(lp544
VYakutsk
p545
aVYakutsk 's army was much better equipped and ten times larger , were victorious within weeks
p546
aa(lp547
Vhad better get away to safety fast
p548
aVLook
p549
aVis a minnow swimming right below that duck
p550
aa(lp551
Vhad better get away to safety fast
p552
aVLook
p553
aVis a shark swimming right below that duck
p554
aa(lp555
Vhunted
p556
aVLaputa 20,000 years ago
p557
aVLaputa
p558
aVhunted for evidence on the river banks
p559
aa(lp560
Vhunted
p561
aVLaputa 20,000 years ago
p562
aVLaputa
p563
aVhunted for deer on the river banks
p564
aa(lp565
Vbegan
p566
aVbegan two years ago
p567
aVthe Indian Ocean
p568
aa(lp569
Vappeared
p570
aVthe Indian Ocean
p571
aVappeared two years ago
p572
aa(lp573
Vnew
p574
aVthe new movie
p575
aVwere very persistent , so the interview lasted for a long time
p576
aa(lp577
Vnew
p578
aVthe new movie
p579
aVwere very cooperative , so the interview lasted for a long time
p580
aa(lp581
Vtrying
p582
aVwere trying to stop the drug trade in the neighborhood
p583
aa(lp584
Vtrying
p585
aVwere trying to run the drug trade in the neighborhood
p586
aa(lp587
Vbutter
p588
aVhas a lot of butter in
p589
aa(lp590
Vleftovers
p591
aVhas a lot of leftovers in
p592
aa(lp593
Va month or so from now should be better
p594
aa(lp595
Vunnecessary
p596
aVa month or so from now should be unnecessary
p597
aa(lp598
Vwere very much in the minority
p599
aa(lp600
Vwere very much in the majority
p601
aa(lp602
Vmake
p603
aVtime , should make more of
p604
aa(lp605
Vmake
p606
aVtime , should make fewer of
p607
aa(lp608
Vthe auditorium , but there were simply not enough of
p609
aa(lp610
Vmany
p611
aVthe auditorium , but there were simply too many of
p612
aa(lp613
Vpulled the pin out , left a hole
p614
aVpulled
p615
aa(lp616
Vpulled the pin out , had a hole
p617
aVpulled
p618
aa(lp619
Vcoffee
p620
aVthat turned out to be a bad idea , because got full of coffee
p621
aa(lp622
Vthat turned out to be a bad idea , because got full of ink
p623
aVfull
p624
aa(lp625
Veverything
p626
aVadmires hugely
p627
aa(lp628
Veverything
p629
aVinfluences hugely
p630
aa(lp631
Vis too wide
p632
aVwide
p633
aa(lp634
Vnarrow
p635
aVis too narrow
p636
aa(lp637
Vthinks looks dowdy on
p638
aVthinks
p639
aa(lp640
Vgreat
p641
aVthinks looks great on
p642
aa(lp643
a(lp644
a(lp645
Van hour later left
p646
aVleft
p647
aa(lp648
Van hour later left
p649
aVleft
p650
aa(lp651
Vfaced
p652
aVthe difficulties faced in his research
p653
aa(lp654
Vfaced
p655
aVthe difficulties faced in his childhood
p656
aa(lp657
Veducation had been managed by an excellent woman as governess
p658
aVmanaged
p659
aa(lp660
Vtaken
p661
aVplace had been taken by an excellent woman as governess
p662
aa(lp663
Vdid not get an answer
p664
aa(lp665
Vanswer
p666
aVdid not answer
p667
aa(lp668
Vreceived
p669
aVreceived the final report on the case
p670
aa(lp671
Vdelivered the final report on the case
p672
aVdelivered
p673
aa(lp674
Vstopped
p675
aVhad cut off , because stopped and counted to ten
p676
aa(lp677
Vhad cut off , because stopped and apologized
p678
aVstopped
p679
aa(lp680
Vgestured toward empty glass
p681
aVempty
p682
aa(lp683
Vgestured toward bathroom key
p684
aVgestured
p685
aa(lp686
Vslow
p687
aV`` Dibs ''
p688
aa(lp689
Vquicker
p690
aV`` Dibs ''
p691
aa(lp692
Vmoved his bishop
p693
aVmoved
p694
aa(lp695
Vtook
p696
aVtook his bishop
p697
aa(lp698
Vsee
p699
aVcould see the landing strip
p700
aa(lp701
Vsee
p702
aVcould see the landing gear
p703
aa(lp704
Vwouldn't have to drive alone
p705
aVdrive
p706
aa(lp707
Vwouldn't have to walk
p708
aVwalk
p709
aa(lp710
Vfull
p711
aVwas full
p712
aa(lp713
Vwas hungry
p714
aVhungry
p715
aa(lp716
Vturn was over
p717
aa(lp718
Vturn was next
p719
aVnext
p720
aa(lp721
Vshoulders
p722
aa(lp723
Vbunk bed
p724
aa(lp725
a(lp726
a(lp727
a(lp728
a(lp729
Vbreaking
p730
aVsilence
p731
aa(lp732
Vconcentration
p733
aVbreaking
p734
aa(lp735
Vsympathetic
p736
aVfather gave a sympathetic look
p737
aa(lp738
Vfather gave a stern look
p739
aVstern
p740
aa(lp741
Vwinding
p742
aVthe long winding steps , legs ached
p743
aa(lp744
Vwinding
p745
aVthe long winding steps , legs dangled
p746
aa(lp747
Varms
p748
aa(lp749
Vbassinet
p750
aa(lp751
Vchest
p752
aa(lp753
a(lp754
Vwere furious about
p755
aVfurious
p756
aa(lp757
Vwere embarrassed about
p758
aVembarrassed
p759
aa(lp760
Vretired
p761
aVhad retired and presented several options for future treatment
p762
aa(lp763
Vfuture
p764
aVhad cancer and presented several options for future treatment
p765
aa(lp766
Vinjured
p767
aVtoying with the injured bird
p768
aVis very compassionate
p769
aa(lp770
Vinjured
p771
aVtoying with the injured bird
p772
aVis very cruel
p773
aa(lp774
Vthough was particularly eager to see
p775
aVeager
p776
aa(lp777
Veager
p778
aVwas particularly eager to see
p779
aa(lp780
Veager
p781
aVwas not particularly eager to see
p782
aa(lp783
Vwasn't hungry
p784
aVhungry
p785
aa(lp786
Vwas hungry
p787
aVhungry
p788
aa(lp789
Vlooking
p790
aVcame out looking more like light bulbs
p791
aa(lp792
Vlooking
p793
aVcame out looking more like telephone poles
p794
aa(lp795
Va favor but was refused
p796
aVrefused
p797
aa(lp798
Va favor but refused
p799
aVrefused
p800
aa(lp801
Vpopular
p802
aVwas less popular
p803
aa(lp804
Vpopular
p805
aVwas more popular
p806
aa(lp807
Vsaw
p808
aVsaw that was open
p809
aa(lp810
Vwas open
p811
aVopen
p812
aa(lp813
Vbroke
p814
aa(lp815
Vbroke
p816
aa(lp817
Vcouldn't stand her boyfriend
p818
aVstand
p819
aa(lp820
Vslept
p821
aVslept with her boyfriend
p822
aa(lp823
Vslept
p824
aVslept with her boyfriend
p825
aa(lp826
Vcouldn't stand her boyfriend
p827
aVstand
p828
aa(lp829
Vstolen
p830
aVhad stolen the watch
p831
aa(lp832
Vstolen
p833
aVhad stolen the watch
p834
aa.