(lp0
(lp1
a(lp2
a(lp3
a(lp4
a(lp5
a(lp6
a(lp7
a(lp8
a(lp9
a(lp10
a(lp11
a(lp12
a(lp13
a(lp14
a(lp15
a(lp16
a(lp17
a(lp18
a(lp19
a(lp20
a(lp21
a(lp22
a(lp23
a(lp24
a(lp25
a(lp26
a(lp27
a(lp28
a(lp29
a(lp30
a(lp31
a(lp32
a(lp33
a(lp34
a(lp35
a(lp36
a(lp37
a(lp38
a(lp39
a(lp40
a(lp41
a(lp42
a(lp43
Vinto
p44
aa(lp45
Vinto
p46
aa(lp47
a(lp48
a(lp49
a(lp50
a(lp51
a(lp52
a(lp53
V's
p54
aa(lp55
V's
p56
aa(lp57
a(lp58
a(lp59
a(lp60
a(lp61
a(lp62
a(lp63
a(lp64
a(lp65
a(lp66
a(lp67
a(lp68
a(lp69
V,
p70
aa(lp71
g70
aa(lp72
a(lp73
a(lp74
a(lp75
a(lp76
a(lp77
a(lp78
Von
p79
aa(lp80
Von
p81
aa(lp82
a(lp83
a(lp84
a(lp85
a(lp86
a(lp87
a(lp88
a(lp89
a(lp90
a(lp91
a(lp92
a(lp93
a(lp94
a(lp95
a(lp96
a(lp97
a(lp98
a(lp99
a(lp100
a(lp101
a(lp102
a(lp103
a(lp104
a(lp105
a(lp106
a(lp107
a(lp108
Vchased
p109
aa(lp110
Vchased
p111
aa(lp112
a(lp113
a(lp114
a(lp115
a(lp116
a(lp117
a(lp118
a(lp119
a(lp120
a(lp121
a(lp122
a(lp123
a(lp124
Vmany
p125
aa(lp126
Vmany
p127
aa(lp128
a(lp129
a(lp130
a(lp131
a(lp132
a(lp133
a(lp134
Vto
p135
aa(lp136
Vto
p137
aa(lp138
a(lp139
a(lp140
a(lp141
a(lp142
a(lp143
a(lp144
a(lp145
a(lp146
a(lp147
a(lp148
a(lp149
a(lp150
Vto
p151
aa(lp152
Vto
p153
aa(lp154
a(lp155
a(lp156
a(lp157
a(lp158
Vwith
p159
aa(lp160
Vwith
p161
aa(lp162
a(lp163
a(lp164
a(lp165
a(lp166
a(lp167
a(lp168
a(lp169
a(lp170
a(lp171
a(lp172
a(lp173
a(lp174
a(lp175
a(lp176
Vwith
p177
aa(lp178
Vwith
p179
aa(lp180
a(lp181
a(lp182
a(lp183
a(lp184
a(lp185
a(lp186
a(lp187
a(lp188
a(lp189
a(lp190
a(lp191
a(lp192
V!
p193
aa(lp194
g193
aa(lp195
a(lp196
a(lp197
a(lp198
a(lp199
a(lp200
a(lp201
a(lp202
a(lp203
a(lp204
a(lp205
a(lp206
a(lp207
a(lp208
a(lp209
a(lp210
a(lp211
a(lp212
a(lp213
Vthrough
p214
aa(lp215
Vthrough
p216
aa(lp217
a(lp218
a(lp219
a(lp220
a(lp221
a(lp222
a(lp223
Vfor
p224
aa(lp225
Vfor
p226
aa(lp227
a(lp228
a(lp229
Vpromised
p230
aa(lp231
Vordered
p232
aa(lp233
a(lp234
a(lp235
V's
p236
aa(lp237
V's
p238
aa(lp239
a(lp240
a(lp241
a(lp242
a(lp243
a(lp244
a(lp245
a(lp246
a(lp247
a(lp248
a(lp249
a(lp250
a(lp251
a(lp252
a(lp253
a(lp254
a(lp255
a(lp256
a(lp257
a(lp258
a(lp259
a(lp260
a(lp261
a(lp262
a(lp263
a(lp264
a(lp265
a(lp266
a(lp267
a(lp268
a(lp269
a(lp270
a(lp271
a(lp272
a(lp273
a(lp274
a(lp275
a(lp276
a(lp277
a(lp278
a(lp279
a(lp280
a(lp281
a(lp282
a(lp283
a(lp284
a(lp285
a(lp286
a(lp287
a(lp288
a(lp289
a(lp290
a(lp291
a(lp292
a(lp293
a(lp294
Von
p295
aa(lp296
Von
p297
aa(lp298
a(lp299
a(lp300
a(lp301
a(lp302
a(lp303
a.