(lp0
c__builtin__
set
p1
((lp2
Vfeared
p3
atp4
Rp5
ag1
((lp6
Vadvocated
p7
atp8
Rp9
ag1
((lp10
Vlarge
p11
aVis
p12
atp13
Rp14
ag1
((lp15
Vsmall
p16
aVis
p17
atp18
Rp19
ag1
((lp20
Vrecieved
p21
aVhad
p22
atp23
Rp24
ag1
((lp25
Vgiven
p26
aVhad
p27
atp28
Rp29
ag1
((lp30
Vsuccessful
p31
aVwas
p32
atp33
Rp34
ag1
((lp35
Vavailable
p36
aVwas
p37
atp38
Rp39
ag1
((lp40
Vrepeat
p41
aVwas
p42
aVreluctant
p43
atp44
Rp45
ag1
((lp46
Vanswer
p47
aVwas
p48
aVreluctant
p49
atp50
Rp51
ag1
((lp52
Vgoing
p53
aVwas
p54
atp55
Rp56
ag1
((lp57
Vslow
p58
aVgoing
p59
aVwas
p60
atp61
Rp62
ag1
((lp63
Vwas
p64
atp65
Rp66
ag1
((lp67
Vwas
p68
atp69
Rp70
ag1
((lp71
Vweak
p72
aVwas
p73
atp74
Rp75
ag1
((lp76
Vheavy
p77
aVwas
p78
atp79
Rp80
ag1
((lp81
Vsteel
p82
aVmade
p83
aVwas
p84
atp85
Rp86
ag1
((lp87
Vmade
p88
aVwas
p89
aVstyrofoam
p90
atp91
Rp92
ag1
((lp93
Vfront
p94
aVis
p95
aVshort
p96
atp97
Rp98
ag1
((lp99
Vfront
p100
aVtall
p101
aVis
p102
atp103
Rp104
ag1
((lp105
Vreached
p106
atp107
Rp108
ag1
((lp109
Vreached
p110
atp111
Rp112
ag1
((lp113
Vsuch
p114
aVgood
p115
aVhad
p116
atp117
Rp118
ag1
((lp119
Vsuch
p120
aVbad
p121
aVhad
p122
atp123
Rp124
ag1
((lp125
Vanchored
p126
aVwas
p127
atp128
Rp129
ag1
((lp130
Vwas
p131
atp132
Rp133
ag1
((lp134
Vdid
p135
aVlook
p136
aVTina
p137
atp138
Rp139
ag1
((lp140
Vdid
p141
aVlook
p142
aVTina
p143
atp144
Rp145
ag1
((lp146
Vstudied
p147
aVhad
p148
atp149
Rp150
ag1
((lp151
Vstudied
p152
aVhad
p153
atp154
Rp155
ag1
((lp156
Vcoming
p157
aVwere
p158
atp159
Rp160
ag1
((lp161
Vcoming
p162
aVwere
p163
atp164
Rp165
ag1
((lp166
Vdid
p167
aVwork
p168
aVhad
p169
aVbought
p170
atp171
Rp172
ag1
((lp173
Vdid
p174
aVsold
p175
aVwork
p176
aVhad
p177
atp178
Rp179
ag1
((lp180
Vupset
p181
aVwas
p182
atp183
Rp184
ag1
((lp185
Vupset
p186
aVwas
p187
atp188
Rp189
ag1
((lp190
Vbe
p191
aVmoved
p192
aVhad
p193
atp194
Rp195
ag1
((lp196
Vbe
p197
aVmoved
p198
aVhad
p199
atp200
Rp201
ag1
((lp202
Vsuccessful
p203
aVis
p204
atp205
Rp206
ag1
((lp207
Vsuccessful
p208
aVis
p209
atp210
Rp211
ag1
((lp212
Vpunished
p213
atp214
Rp215
ag1
((lp216
Vrescued
p217
atp218
Rp219
ag1
((lp220
Vwas
p221
aVempty
p222
atp223
Rp224
ag1
((lp225
Vfull
p226
aVwas
p227
atp228
Rp229
ag1
((lp230
Vnosy
p231
aVis
p232
atp233
Rp234
ag1
((lp235
Vis
p236
aVindiscreet
p237
atp238
Rp239
ag1
((lp240
Vconvince
p241
atp242
Rp243
ag1
((lp244
Vunderstand
p245
atp246
Rp247
ag1
((lp248
Vtold
p249
atp250
Rp251
ag1
((lp252
Vtold
p253
atp254
Rp255
ag1
((lp256
Vis
p257
aVtennis
p258
aVyounger
p259
atp260
Rp261
ag1
((lp262
Vis
p263
aVtennis
p264
aVolder
p265
atp266
Rp267
ag1
((lp268
Vis
p269
atp270
Rp271
ag1
((lp272
Vis
p273
atp274
Rp275
ag1
((lp276
Vsee
p277
atp278
Rp279
ag1
((lp280
Vsee
p281
atp282
Rp283
ag1
((lp284
Vbe
p285
aVhas
p286
aVcleaned
p287
atp288
Rp289
ag1
((lp290
Vbe
p291
aVremoved
p292
aVhas
p293
atp294
Rp295
ag1
((lp296
Vworked
p297
aVmuch
p298
aVwas
p299
aVshort
p300
atp301
Rp302
ag1
((lp303
Vworked
p304
aVmuch
p305
aVwas
p306
aVdelayed
p307
atp308
Rp309
ag1
((lp310
Vsee
p311
atp312
Rp313
ag1
((lp314
Vsee
p315
atp316
Rp317
ag1
((lp318
Vhear
p319
atp320
Rp321
ag1
((lp322
Vhear
p323
atp324
Rp325
ag1
((lp326
Vcontinued
p327
atp328
Rp329
ag1
((lp330
Vcontinued
p331
atp332
Rp333
ag1
((lp334
Vput
p335
atp336
Rp337
ag1
((lp338
Vput
p339
atp340
Rp341
ag1
((lp342
Vhad
p343
aVforgotten
p344
atp345
Rp346
ag1
((lp347
Vhad
p348
aVforgotten
p349
atp350
Rp351
ag1
((lp352
Vbe
p353
aVhandy
p354
atp355
Rp356
ag1
((lp357
Vbe
p358
aVlighter
p359
atp360
Rp361
ag1
((lp362
Vtall
p363
aVwas
p364
atp365
Rp366
ag1
((lp367
Vhigh
p368
aVwas
p369
atp370
Rp371
ag1
((lp372
tp373
Rp374
ag1
((lp375
tp376
Rp377
ag1
((lp378
Vis
p379
aVgenerous
p380
atp381
Rp382
ag1
((lp383
Vis
p384
aVgrateful
p385
atp386
Rp387
ag1
((lp388
Vhurt
p389
aVis
p390
aVacts
p391
aVhappened
p392
atp393
Rp394
ag1
((lp395
Vungrateful
p396
aVis
p397
aVacts
p398
aVhappened
p399
atp400
Rp401
ag1
((lp402
Vgood
p403
aVwon
p404
aVhad
p405
aVsudden
p406
aVAdam
p407
aVhave
p408
aVwas
p409
atp410
Rp411
ag1
((lp412
Vgood
p413
aVlost
p414
aVhad
p415
aVsudden
p416
aVAdam
p417
aVhave
p418
aVwas
p419
atp420
Rp421
ag1
((lp422
Vbe
p423
aVgone
p424
aVwork
p425
aVhad
p426
aVtime
p427
aVBob
p428
aVleft
p429
atp430
Rp431
ag1
((lp432
Vbe
p433
aVwork
p434
aVhad
p435
aVtime
p436
aVBob
p437
aVleft
p438
atp439
Rp440
ag1
((lp441
Vgotten
p442
aVhave
p443
aVmoney
p444
atp445
Rp446
ag1
((lp447
Vmoney
p448
aVlost
p449
aVhave
p450
atp451
Rp452
ag1
((lp453
Vgot
p454
aVmoved
p455
aVwas
p456
aVhot
p457
aVsitting
p458
atp459
Rp460
ag1
((lp461
Vcooler
p462
aVgot
p463
aVmoved
p464
aVwas
p465
aVsitting
p466
atp467
Rp468
ag1
((lp469
Vimpatient
p470
aVwas
p471
atp472
Rp473
ag1
((lp474
Vcautious
p475
aVwas
p476
atp477
Rp478
ag1
((lp479
Vis
p480
aVcharming
p481
atp482
Rp483
ag1
((lp484
Vis
p485
aVcharming
p486
atp487
Rp488
ag1
((lp489
Vbehaving
p490
aVwonder
p491
aVwas
p492
aVchatting
p493
aVleaving
p494
atp495
Rp496
ag1
((lp497
Vbehaving
p498
aVwonder
p499
aVwas
p500
aVbarking
p501
aVleaving
p502
atp503
Rp504
ag1
((lp505
Vhuge
p506
aVdo
p507
aVunhappy
p508
aVlooked
p509
aVknow
p510
aVwas
p511
aVred
p512
atp513
Rp514
ag1
((lp515
Vhuge
p516
aVdo
p517
aVunhappy
p518
aVlooked
p519
aVknow
p520
aVwas
p521
aVred
p522
atp523
Rp524
ag1
((lp525
Vwas
p526
aVhungry
p527
atp528
Rp529
ag1
((lp530
Vtasty
p531
aVwas
p532
atp533
Rp534
ag1
((lp535
Vget
p536
atp537
Rp538
ag1
((lp539
Vget
p540
atp541
Rp542
ag1
((lp543
Vran
p544
aVwaited
p545
atp546
Rp547
ag1
((lp548
Vran
p549
aVwaited
p550
atp551
Rp552
ag1
((lp553
Vremoved
p554
aVhave
p555
aVget
p556
atp557
Rp558
ag1
((lp559
Vrepaired
p560
aVhave
p561
aVget
p562
atp563
Rp564
ag1
((lp565
Vtaken
p566
aVstabbed
p567
aVwas
p568
atp569
Rp570
ag1
((lp571
Vtaken
p572
aVstabbed
p573
aVwas
p574
atp575
Rp576
ag1
((lp577
Vwas
p578
aVannoyed
p579
aVwhistling
p580
atp581
Rp582
ag1
((lp583
Vannoying
p584
aVwas
p585
aVwhistling
p586
atp587
Rp588
ag1
((lp589
Vwas
p590
aVsaw
p591
aVjuggling
p592
aVimpressed
p593
atp594
Rp595
ag1
((lp596
Vwas
p597
aVsaw
p598
aVjuggling
p599
aVimpressive
p600
atp601
Rp602
ag1
((lp603
Vwas
p604
aVsaw
p605
aVhelp
p606
aVcoming
p607
atp608
Rp609
ag1
((lp610
Vwas
p611
aVconcerned
p612
aVsaw
p613
aVhelp
p614
aVcoming
p615
atp616
Rp617
ag1
((lp618
Vare
p619
atp620
Rp621
ag1
((lp622
Vare
p623
atp624
Rp625
ag1
((lp626
Vincluded
p627
aVtruthful
p628
aVbeen
p629
aVhave
p630
atp631
Rp632
ag1
((lp633
Vincluded
p634
aVskeptical
p635
aVbeen
p636
aVhave
p637
atp638
Rp639
ag1
((lp640
Vbe
p641
aVThursday
p642
aVfew
p643
aVmoving
p644
aVnew
p645
aVbought
p646
atp647
Rp648
ag1
((lp649
Vbe
p650
aVThursday
p651
aVfew
p652
aVmoving
p653
aVnew
p654
aVbought
p655
atp656
Rp657
ag1
((lp658
Vput
p659
aVgripped
p660
aVPaul
p661
aVwrites
p662
aVare
p663
atp664
Rp665
ag1
((lp666
Vput
p667
aVpopular
p668
aVPaul
p669
aVwrites
p670
aVare
p671
atp672
Rp673
ag1
((lp674
Vhad
p675
aVhas
p676
aVfavorite
p677
aVwas
p678
aVplayed
p679
atp680
Rp681
ag1
((lp682
Vloved
p683
aVhas
p684
aVfavorite
p685
aVwas
p686
aVplayed
p687
atp688
Rp689
ag1
((lp690
Vbroken
p691
aVwas
p692
aVstand
p693
aVhad
p694
atp695
Rp696
ag1
((lp697
Vbroken
p698
aVsing
p699
aVwas
p700
aVhad
p701
atp702
Rp703
ag1
((lp704
tp705
Rp706
ag1
((lp707
tp708
Rp709
ag1
((lp710
Vwork
p711
aVreads
p712
aVgets
p713
atp714
Rp715
ag1
((lp716
Vwork
p717
aVwrites
p718
aVgets
p719
atp720
Rp721
ag1
((lp722
Vknocked
p723
aVhighest
p724
atp725
Rp726
ag1
((lp727
Vknocked
p728
aVhighest
p729
atp730
Rp731
ag1
((lp732
Vdisappointed
p733
aVwas
p734
atp735
Rp736
ag1
((lp737
Vwas
p738
atp739
Rp740
ag1
((lp741
Vinvited
p742
aVcome
p743
atp744
Rp745
ag1
((lp746
Vinvited
p747
aVcome
p748
atp749
Rp750
ag1
((lp751
Veager
p752
aVwas
p753
aVspeak
p754
atp755
Rp756
ag1
((lp757
Vknown
p758
aVwas
p759
aVspeak
p760
atp761
Rp762
ag1
((lp763
Vuse
p764
atp765
Rp766
ag1
((lp767
Vreach
p768
atp769
Rp770
ag1
((lp771
Vstarted
p772
aVwas
p773
atp774
Rp775
ag1
((lp776
Vstarted
p777
aVgone
p778
aVwas
p779
atp780
Rp781
ag1
((lp782
Vswim
p783
aVsafer
p784
aVwas
p785
atp786
Rp787
ag1
((lp788
Vswim
p789
aVdangerous
p790
aVwas
p791
atp792
Rp793
ag1
((lp794
Vlooking
p795
aVended
p796
aVgolfers
p797
aVmore
p798
atp799
Rp800
ag1
((lp801
Vlooking
p802
aVended
p803
aVdogs
p804
aVmore
p805
atp806
Rp807
ag1
((lp808
Vwork
p809
aVbed
p810
atp811
Rp812
ag1
((lp813
Vsleep
p814
aVbed
p815
atp816
Rp817
ag1
((lp818
Vcold
p819
aVprepared
p820
aVAlaska
p821
aVwere
p822
atp823
Rp824
ag1
((lp825
Vcold
p826
aVAlaska
p827
aVwere
p828
atp829
Rp830
ag1
((lp831
Vtravelling
p832
aVhad
p833
aVbeen
p834
atp835
Rp836
ag1
((lp837
Vhad
p838
aVdead
p839
aVbeen
p840
atp841
Rp842
ag1
((lp843
Vlived
p844
atp845
Rp846
ag1
((lp847
Vlived
p848
atp849
Rp850
ag1
((lp851
tp852
Rp853
ag1
((lp854
tp855
Rp856
ag1
((lp857
Vkill
p858
aVhave
p859
atp860
Rp861
ag1
((lp862
Vguard
p863
aVhave
p864
atp865
Rp866
ag1
((lp867
Vgotten
p868
aVbold
p869
aVhave
p870
atp871
Rp872
ag1
((lp873
Vgotten
p874
aVhave
p875
aVnervous
p876
atp877
Rp878
ag1
((lp879
Vstopped
p880
aVblowing
p881
aVwas
p882
aVopened
p883
atp884
Rp885
ag1
((lp886
Vstopped
p887
aVlowered
p888
aVblowing
p889
aVwas
p890
atp891
Rp892
ag1
((lp893
Vhard
p894
aVpronounce
p895
aVfigured
p896
aVwas
p897
atp898
Rp899
ag1
((lp900
Vpronounce
p901
aVfigured
p902
aVwas
p903
aVeasier
p904
atp905
Rp906
ag1
((lp907
Vgot
p908
aVbuy
p909
atp910
Rp911
ag1
((lp912
Vgot
p913
aVbuy
p914
atp915
Rp916
ag1
((lp917
Vbe
p918
aVchanged
p919
aVturned
p920
aVboring
p921
atp922
Rp923
ag1
((lp924
Vbe
p925
aVchanged
p926
aVturned
p927
aVboring
p928
atp929
Rp930
ag1
((lp931
Vis
p932
aVremarkable
p933
atp934
Rp935
ag1
((lp936
Vwas
p937
aVremarkable
p938
atp939
Rp940
ag1
((lp941
Vwas
p942
aVold
p943
aVsaw
p944
atp945
Rp946
ag1
((lp947
Vwas
p948
aVold
p949
aVsaw
p950
atp951
Rp952
ag1
((lp953
VYakutsk
p954
aVlarger
p955
aVdefeated
p956
aVbetter
p957
aVwere
p958
aVequipped
p959
aVweeks
p960
aVwas
p961
atp962
Rp963
ag1
((lp964
VYakutsk
p965
aVlarger
p966
aVbetter
p967
aVvictorious
p968
aVwere
p969
aVequipped
p970
aVweeks
p971
aVwas
p972
atp973
Rp974
ag1
((lp975
Vis
p976
aVhad
p977
aVLook
p978
aVget
p979
atp980
Rp981
ag1
((lp982
Vis
p983
aVhad
p984
aVLook
p985
aVget
p986
atp987
Rp988
ag1
((lp989
Vhunted
p990
aVLaputa
p991
aVevidence
p992
atp993
Rp994
ag1
((lp995
Vhunted
p996
aVLaputa
p997
aVdeer
p998
atp999
Rp1000
ag1
((lp1001
Vbegan
p1002
atp1003
Rp1004
ag1
((lp1005
Vappeared
p1006
atp1007
Rp1008
ag1
((lp1009
Vnew
p1010
aVlasted
p1011
aVpersistent
p1012
aVlong
p1013
aVwere
p1014
atp1015
Rp1016
ag1
((lp1017
Vnew
p1018
aVlong
p1019
aVlasted
p1020
aVcooperative
p1021
aVwere
p1022
atp1023
Rp1024
ag1
((lp1025
Vtrying
p1026
aVstop
p1027
aVwere
p1028
atp1029
Rp1030
ag1
((lp1031
Vtrying
p1032
aVrun
p1033
aVwere
p1034
atp1035
Rp1036
ag1
((lp1037
Vbutter
p1038
aVhas
p1039
atp1040
Rp1041
ag1
((lp1042
Vleftovers
p1043
aVhas
p1044
atp1045
Rp1046
ag1
((lp1047
Vbe
p1048
atp1049
Rp1050
ag1
((lp1051
Vbe
p1052
aVunnecessary
p1053
atp1054
Rp1055
ag1
((lp1056
Vwere
p1057
atp1058
Rp1059
ag1
((lp1060
Vwere
p1061
atp1062
Rp1063
ag1
((lp1064
Vmake
p1065
aVmore
p1066
aVNext
p1067
atp1068
Rp1069
ag1
((lp1070
Vmake
p1071
aVfewer
p1072
aVNext
p1073
atp1074
Rp1075
ag1
((lp1076
Vwere
p1077
atp1078
Rp1079
ag1
((lp1080
Vmany
p1081
aVwere
p1082
atp1083
Rp1084
ag1
((lp1085
Vpulled
p1086
aVleft
p1087
atp1088
Rp1089
ag1
((lp1090
Vhad
p1091
aVpulled
p1092
atp1093
Rp1094
ag1
((lp1095
Vbe
p1096
aVcoffee
p1097
aVfull
p1098
aVturned
p1099
aVbad
p1100
aVgot
p1101
atp1102
Rp1103
ag1
((lp1104
Vbe
p1105
aVfull
p1106
aVturned
p1107
aVbad
p1108
aVink
p1109
aVgot
p1110
atp1111
Rp1112
ag1
((lp1113
Veverything
p1114
aVadmires
p1115
atp1116
Rp1117
ag1
((lp1118
Veverything
p1119
aVinfluences
p1120
atp1121
Rp1122
ag1
((lp1123
Vwide
p1124
aVis
p1125
atp1126
Rp1127
ag1
((lp1128
Vis
p1129
aVnarrow
p1130
atp1131
Rp1132
ag1
((lp1133
Vthinks
p1134
aVdowdy
p1135
aVlooks
p1136
atp1137
Rp1138
ag1
((lp1139
Vgreat
p1140
aVthinks
p1141
aVlooks
p1142
atp1143
Rp1144
ag1
((lp1145
tp1146
Rp1147
ag1
((lp1148
tp1149
Rp1150
ag1
((lp1151
Vleft
p1152
atp1153
Rp1154
ag1
((lp1155
Vleft
p1156
atp1157
Rp1158
ag1
((lp1159
Vfaced
p1160
atp1161
Rp1162
ag1
((lp1163
Vfaced
p1164
atp1165
Rp1166
ag1
((lp1167
Vmanaged
p1168
aVgoverness
p1169
aVhad
p1170
aVbeen
p1171
aVexcellent
p1172
atp1173
Rp1174
ag1
((lp1175
Vtaken
p1176
aVgoverness
p1177
aVhad
p1178
aVbeen
p1179
aVexcellent
p1180
atp1181
Rp1182
ag1
((lp1183
Vdid
p1184
aVget
p1185
atp1186
Rp1187
ag1
((lp1188
Vdid
p1189
aVanswer
p1190
atp1191
Rp1192
ag1
((lp1193
Vreceived
p1194
aVfinal
p1195
atp1196
Rp1197
ag1
((lp1198
Vdelivered
p1199
aVfinal
p1200
atp1201
Rp1202
ag1
((lp1203
Vstopped
p1204
aVcut
p1205
aVhad
p1206
aVcounted
p1207
atp1208
Rp1209
ag1
((lp1210
Vstopped
p1211
aVcut
p1212
aVhad
p1213
aVapologized
p1214
atp1215
Rp1216
ag1
((lp1217
Vempty
p1218
aVgestured
p1219
atp1220
Rp1221
ag1
((lp1222
Vgestured
p1223
atp1224
Rp1225
ag1
((lp1226
Vslow
p1227
aVwas
p1228
atp1229
Rp1230
ag1
((lp1231
Vquicker
p1232
aVwas
p1233
atp1234
Rp1235
ag1
((lp1236
Vmoved
p1237
atp1238
Rp1239
ag1
((lp1240
Vtook
p1241
atp1242
Rp1243
ag1
((lp1244
Vsee
p1245
atp1246
Rp1247
ag1
((lp1248
Vsee
p1249
atp1250
Rp1251
ag1
((lp1252
Vdrive
p1253
aVhave
p1254
atp1255
Rp1256
ag1
((lp1257
Vhave
p1258
aVwalk
p1259
atp1260
Rp1261
ag1
((lp1262
Vfull
p1263
aVwas
p1264
atp1265
Rp1266
ag1
((lp1267
Vwas
p1268
aVhungry
p1269
atp1270
Rp1271
ag1
((lp1272
Vwas
p1273
atp1274
Rp1275
ag1
((lp1276
Vwas
p1277
aVnext
p1278
atp1279
Rp1280
ag1
((lp1281
tp1282
Rp1283
ag1
((lp1284
tp1285
Rp1286
ag1
((lp1287
tp1288
Rp1289
ag1
((lp1290
tp1291
Rp1292
ag1
((lp1293
tp1294
Rp1295
ag1
((lp1296
tp1297
Rp1298
ag1
((lp1299
Vbreaking
p1300
atp1301
Rp1302
ag1
((lp1303
Vbreaking
p1304
atp1305
Rp1306
ag1
((lp1307
Vsympathetic
p1308
aVgave
p1309
atp1310
Rp1311
ag1
((lp1312
Vstern
p1313
aVgave
p1314
atp1315
Rp1316
ag1
((lp1317
Vwinding
p1318
aVached
p1319
aVlong
p1320
atp1321
Rp1322
ag1
((lp1323
Vwinding
p1324
aVdangled
p1325
aVlong
p1326
atp1327
Rp1328
ag1
((lp1329
tp1330
Rp1331
ag1
((lp1332
tp1333
Rp1334
ag1
((lp1335
tp1336
Rp1337
ag1
((lp1338
tp1339
Rp1340
ag1
((lp1341
Vfurious
p1342
aVwere
p1343
atp1344
Rp1345
ag1
((lp1346
Vembarrassed
p1347
aVwere
p1348
atp1349
Rp1350
ag1
((lp1351
Vretired
p1352
aVfuture
p1353
aVseveral
p1354
aVhad
p1355
aVpresented
p1356
atp1357
Rp1358
ag1
((lp1359
Vfuture
p1360
aVseveral
p1361
aVhad
p1362
aVpresented
p1363
atp1364
Rp1365
ag1
((lp1366
Vinjured
p1367
aVis
p1368
aVcompassionate
p1369
aVtoying
p1370
atp1371
Rp1372
ag1
((lp1373
Vinjured
p1374
aVis
p1375
aVcruel
p1376
aVtoying
p1377
atp1378
Rp1379
ag1
((lp1380
Veager
p1381
aVsee
p1382
aVwas
p1383
atp1384
Rp1385
ag1
((lp1386
Veager
p1387
aVsee
p1388
aVwas
p1389
atp1390
Rp1391
ag1
((lp1392
Veager
p1393
aVsee
p1394
aVwas
p1395
atp1396
Rp1397
ag1
((lp1398
Vwas
p1399
aVhungry
p1400
atp1401
Rp1402
ag1
((lp1403
Vwas
p1404
aVhungry
p1405
atp1406
Rp1407
ag1
((lp1408
Vlooking
p1409
aVlight
p1410
aVcame
p1411
aVmore
p1412
atp1413
Rp1414
ag1
((lp1415
Vlooking
p1416
aVtelephone
p1417
aVcame
p1418
aVmore
p1419
atp1420
Rp1421
ag1
((lp1422
Vwas
p1423
aVrefused
p1424
atp1425
Rp1426
ag1
((lp1427
Vrefused
p1428
atp1429
Rp1430
ag1
((lp1431
Vpopular
p1432
aVwas
p1433
atp1434
Rp1435
ag1
((lp1436
Vpopular
p1437
aVwas
p1438
atp1439
Rp1440
ag1
((lp1441
Vwas
p1442
aVsaw
p1443
aVopen
p1444
atp1445
Rp1446
ag1
((lp1447
Vopen
p1448
aVwas
p1449
atp1450
Rp1451
ag1
((lp1452
Vbroke
p1453
atp1454
Rp1455
ag1
((lp1456
Vbroke
p1457
atp1458
Rp1459
ag1
((lp1460
Vstand
p1461
atp1462
Rp1463
ag1
((lp1464
Vslept
p1465
atp1466
Rp1467
ag1
((lp1468
Vslept
p1469
atp1470
Rp1471
ag1
((lp1472
Vstand
p1473
atp1474
Rp1475
ag1
((lp1476
Vstolen
p1477
aVhad
p1478
atp1479
Rp1480
ag1
((lp1481
Vstolen
p1482
aVhad
p1483
atp1484
Rp1485
a.